
/home/cookiecoolkid/.ssh/ics2023/am-kernels/tests/cpu-tests/build/hello-str-riscv32-nemu.elf:     file format elf32-littleriscv


Disassembly of section .text:

80000000 <_start>:
80000000:	00000413          	li	s0,0
80000004:	00009117          	auipc	sp,0x9
80000008:	ffc10113          	addi	sp,sp,-4 # 80009000 <_end>
8000000c:	0e8000ef          	jal	ra,800000f4 <_trm_init>

80000010 <check>:
80000010:	00050463          	beqz	a0,80000018 <check+0x8>
80000014:	00008067          	ret
80000018:	ff010113          	addi	sp,sp,-16
8000001c:	00100513          	li	a0,1
80000020:	00112623          	sw	ra,12(sp)
80000024:	0c4000ef          	jal	ra,800000e8 <halt>

80000028 <main>:
80000028:	ff010113          	addi	sp,sp,-16
8000002c:	00812423          	sw	s0,8(sp)
80000030:	00000417          	auipc	s0,0x0
80000034:	4e040413          	addi	s0,s0,1248 # 80000510 <buf>
80000038:	00000617          	auipc	a2,0x0
8000003c:	49460613          	addi	a2,a2,1172 # 800004cc <_etext>
80000040:	00000597          	auipc	a1,0x0
80000044:	49c58593          	addi	a1,a1,1180 # 800004dc <_etext+0x10>
80000048:	00040513          	mv	a0,s0
8000004c:	00112623          	sw	ra,12(sp)
80000050:	1e8000ef          	jal	ra,80000238 <sprintf>
80000054:	00000597          	auipc	a1,0x0
80000058:	47858593          	addi	a1,a1,1144 # 800004cc <_etext>
8000005c:	00040513          	mv	a0,s0
80000060:	0b4000ef          	jal	ra,80000114 <strcmp>
80000064:	00153513          	seqz	a0,a0
80000068:	fa9ff0ef          	jal	ra,80000010 <check>
8000006c:	00200713          	li	a4,2
80000070:	00100693          	li	a3,1
80000074:	00100613          	li	a2,1
80000078:	00000597          	auipc	a1,0x0
8000007c:	46858593          	addi	a1,a1,1128 # 800004e0 <_etext+0x14>
80000080:	00040513          	mv	a0,s0
80000084:	1b4000ef          	jal	ra,80000238 <sprintf>
80000088:	00000597          	auipc	a1,0x0
8000008c:	46858593          	addi	a1,a1,1128 # 800004f0 <_etext+0x24>
80000090:	00040513          	mv	a0,s0
80000094:	080000ef          	jal	ra,80000114 <strcmp>
80000098:	00153513          	seqz	a0,a0
8000009c:	f75ff0ef          	jal	ra,80000010 <check>
800000a0:	00c00713          	li	a4,12
800000a4:	00a00693          	li	a3,10
800000a8:	00200613          	li	a2,2
800000ac:	00000597          	auipc	a1,0x0
800000b0:	43458593          	addi	a1,a1,1076 # 800004e0 <_etext+0x14>
800000b4:	00040513          	mv	a0,s0
800000b8:	180000ef          	jal	ra,80000238 <sprintf>
800000bc:	00000597          	auipc	a1,0x0
800000c0:	44058593          	addi	a1,a1,1088 # 800004fc <_etext+0x30>
800000c4:	00040513          	mv	a0,s0
800000c8:	04c000ef          	jal	ra,80000114 <strcmp>
800000cc:	00153513          	seqz	a0,a0
800000d0:	f41ff0ef          	jal	ra,80000010 <check>
800000d4:	00c12083          	lw	ra,12(sp)
800000d8:	00812403          	lw	s0,8(sp)
800000dc:	00000513          	li	a0,0
800000e0:	01010113          	addi	sp,sp,16
800000e4:	00008067          	ret

800000e8 <halt>:
800000e8:	00050513          	mv	a0,a0
800000ec:	00100073          	ebreak
800000f0:	0000006f          	j	800000f0 <halt+0x8>

800000f4 <_trm_init>:
800000f4:	ff010113          	addi	sp,sp,-16
800000f8:	00000517          	auipc	a0,0x0
800000fc:	41450513          	addi	a0,a0,1044 # 8000050c <mainargs>
80000100:	00112623          	sw	ra,12(sp)
80000104:	f25ff0ef          	jal	ra,80000028 <main>
80000108:	00050513          	mv	a0,a0
8000010c:	00100073          	ebreak
80000110:	0000006f          	j	80000110 <_trm_init+0x1c>

80000114 <strcmp>:
80000114:	00054883          	lbu	a7,0(a0)
80000118:	0005c683          	lbu	a3,0(a1)
8000011c:	00050813          	mv	a6,a0
80000120:	00000793          	li	a5,0
80000124:	08088463          	beqz	a7,800001ac <strcmp+0x98>
80000128:	00178793          	addi	a5,a5,1
8000012c:	00f80733          	add	a4,a6,a5
80000130:	00074703          	lbu	a4,0(a4)
80000134:	fe071ae3          	bnez	a4,80000128 <strcmp+0x14>
80000138:	06068663          	beqz	a3,800001a4 <strcmp+0x90>
8000013c:	00000713          	li	a4,0
80000140:	00070693          	mv	a3,a4
80000144:	00170713          	addi	a4,a4,1
80000148:	00e58633          	add	a2,a1,a4
8000014c:	00064603          	lbu	a2,0(a2)
80000150:	fe0618e3          	bnez	a2,80000140 <strcmp+0x2c>
80000154:	fff00513          	li	a0,-1
80000158:	04078463          	beqz	a5,800001a0 <strcmp+0x8c>
8000015c:	00000713          	li	a4,0
80000160:	0100006f          	j	80000170 <strcmp+0x5c>
80000164:	04d70063          	beq	a4,a3,800001a4 <strcmp+0x90>
80000168:	00034883          	lbu	a7,0(t1)
8000016c:	00060713          	mv	a4,a2
80000170:	00e58633          	add	a2,a1,a4
80000174:	00064503          	lbu	a0,0(a2)
80000178:	00170613          	addi	a2,a4,1
8000017c:	00c80333          	add	t1,a6,a2
80000180:	03156263          	bltu	a0,a7,800001a4 <strcmp+0x90>
80000184:	00a8ec63          	bltu	a7,a0,8000019c <strcmp+0x88>
80000188:	fcf61ee3          	bne	a2,a5,80000164 <strcmp+0x50>
8000018c:	40d70533          	sub	a0,a4,a3
80000190:	00a03533          	snez	a0,a0
80000194:	40a00533          	neg	a0,a0
80000198:	00008067          	ret
8000019c:	fff00513          	li	a0,-1
800001a0:	00008067          	ret
800001a4:	00100513          	li	a0,1
800001a8:	00008067          	ret
800001ac:	f80698e3          	bnez	a3,8000013c <strcmp+0x28>
800001b0:	00000513          	li	a0,0
800001b4:	00008067          	ret

800001b8 <format_type>:
800001b8:	00b505b3          	add	a1,a0,a1
800001bc:	0005c703          	lbu	a4,0(a1)
800001c0:	02500793          	li	a5,37
800001c4:	04f71663          	bne	a4,a5,80000210 <format_type+0x58>
800001c8:	0015c783          	lbu	a5,1(a1)
800001cc:	07300713          	li	a4,115
800001d0:	04e78463          	beq	a5,a4,80000218 <format_type+0x60>
800001d4:	06400713          	li	a4,100
800001d8:	04e78463          	beq	a5,a4,80000220 <format_type+0x68>
800001dc:	06300693          	li	a3,99
800001e0:	04d78863          	beq	a5,a3,80000230 <format_type+0x78>
800001e4:	03000693          	li	a3,48
800001e8:	00000513          	li	a0,0
800001ec:	02d79063          	bne	a5,a3,8000020c <format_type+0x54>
800001f0:	0025c683          	lbu	a3,2(a1)
800001f4:	00800613          	li	a2,8
800001f8:	fcf68793          	addi	a5,a3,-49
800001fc:	0ff7f793          	zext.b	a5,a5
80000200:	00f66663          	bltu	a2,a5,8000020c <format_type+0x54>
80000204:	0035c783          	lbu	a5,3(a1)
80000208:	02e78063          	beq	a5,a4,80000228 <format_type+0x70>
8000020c:	00008067          	ret
80000210:	00000513          	li	a0,0
80000214:	00008067          	ret
80000218:	00a00513          	li	a0,10
8000021c:	00008067          	ret
80000220:	00b00513          	li	a0,11
80000224:	00008067          	ret
80000228:	fd068513          	addi	a0,a3,-48
8000022c:	00008067          	ret
80000230:	00c00513          	li	a0,12
80000234:	00008067          	ret

80000238 <sprintf>:
80000238:	f9010113          	addi	sp,sp,-112
8000023c:	03a12023          	sw	s10,32(sp)
80000240:	04112623          	sw	ra,76(sp)
80000244:	04812423          	sw	s0,72(sp)
80000248:	04912223          	sw	s1,68(sp)
8000024c:	05212023          	sw	s2,64(sp)
80000250:	03312e23          	sw	s3,60(sp)
80000254:	03412c23          	sw	s4,56(sp)
80000258:	03512a23          	sw	s5,52(sp)
8000025c:	03612823          	sw	s6,48(sp)
80000260:	03712623          	sw	s7,44(sp)
80000264:	03812423          	sw	s8,40(sp)
80000268:	03912223          	sw	s9,36(sp)
8000026c:	01b12e23          	sw	s11,28(sp)
80000270:	0005ca83          	lbu	s5,0(a1)
80000274:	06f12223          	sw	a5,100(sp)
80000278:	05810793          	addi	a5,sp,88
8000027c:	04c12c23          	sw	a2,88(sp)
80000280:	04d12e23          	sw	a3,92(sp)
80000284:	06e12023          	sw	a4,96(sp)
80000288:	07012423          	sw	a6,104(sp)
8000028c:	07112623          	sw	a7,108(sp)
80000290:	00f12623          	sw	a5,12(sp)
80000294:	00050d13          	mv	s10,a0
80000298:	220a8663          	beqz	s5,800004c4 <sprintf+0x28c>
8000029c:	00058b13          	mv	s6,a1
800002a0:	00000c13          	li	s8,0
800002a4:	00000d93          	li	s11,0
800002a8:	00050b93          	mv	s7,a0
800002ac:	00a00c93          	li	s9,10
800002b0:	00b00913          	li	s2,11
800002b4:	00900413          	li	s0,9
800002b8:	00800493          	li	s1,8
800002bc:	03000a13          	li	s4,48
800002c0:	00c00993          	li	s3,12
800002c4:	0440006f          	j	80000308 <sprintf+0xd0>
800002c8:	19950463          	beq	a0,s9,80000450 <sprintf+0x218>
800002cc:	fff50593          	addi	a1,a0,-1
800002d0:	0b250863          	beq	a0,s2,80000380 <sprintf+0x148>
800002d4:	0ab4f663          	bgeu	s1,a1,80000380 <sprintf+0x148>
800002d8:	03351263          	bne	a0,s3,800002fc <sprintf+0xc4>
800002dc:	00c12783          	lw	a5,12(sp)
800002e0:	001c0c13          	addi	s8,s8,1
800002e4:	002d8d93          	addi	s11,s11,2
800002e8:	0007a703          	lw	a4,0(a5)
800002ec:	00478793          	addi	a5,a5,4
800002f0:	00f12623          	sw	a5,12(sp)
800002f4:	00eb8023          	sb	a4,0(s7)
800002f8:	018d0bb3          	add	s7,s10,s8
800002fc:	01bb07b3          	add	a5,s6,s11
80000300:	0007ca83          	lbu	s5,0(a5)
80000304:	020a8a63          	beqz	s5,80000338 <sprintf+0x100>
80000308:	000d8593          	mv	a1,s11
8000030c:	000b0513          	mv	a0,s6
80000310:	ea9ff0ef          	jal	ra,800001b8 <format_type>
80000314:	000c0693          	mv	a3,s8
80000318:	fa0518e3          	bnez	a0,800002c8 <sprintf+0x90>
8000031c:	001d8d93          	addi	s11,s11,1
80000320:	015b8023          	sb	s5,0(s7)
80000324:	01bb07b3          	add	a5,s6,s11
80000328:	0007ca83          	lbu	s5,0(a5)
8000032c:	001c0c13          	addi	s8,s8,1
80000330:	018d0bb3          	add	s7,s10,s8
80000334:	fc0a9ae3          	bnez	s5,80000308 <sprintf+0xd0>
80000338:	000b8d13          	mv	s10,s7
8000033c:	000d0023          	sb	zero,0(s10)
80000340:	04c12083          	lw	ra,76(sp)
80000344:	04812403          	lw	s0,72(sp)
80000348:	04412483          	lw	s1,68(sp)
8000034c:	04012903          	lw	s2,64(sp)
80000350:	03c12983          	lw	s3,60(sp)
80000354:	03812a03          	lw	s4,56(sp)
80000358:	03412a83          	lw	s5,52(sp)
8000035c:	03012b03          	lw	s6,48(sp)
80000360:	02c12b83          	lw	s7,44(sp)
80000364:	02412c83          	lw	s9,36(sp)
80000368:	02012d03          	lw	s10,32(sp)
8000036c:	01c12d83          	lw	s11,28(sp)
80000370:	000c0513          	mv	a0,s8
80000374:	02812c03          	lw	s8,40(sp)
80000378:	07010113          	addi	sp,sp,112
8000037c:	00008067          	ret
80000380:	00c12703          	lw	a4,12(sp)
80000384:	00000e93          	li	t4,0
80000388:	00072783          	lw	a5,0(a4)
8000038c:	00470713          	addi	a4,a4,4
80000390:	00e12623          	sw	a4,12(sp)
80000394:	0007d663          	bgez	a5,800003a0 <sprintf+0x168>
80000398:	40f007b3          	neg	a5,a5
8000039c:	00100e93          	li	t4,1
800003a0:	00000713          	li	a4,0
800003a4:	001c0813          	addi	a6,s8,1
800003a8:	0397e633          	rem	a2,a5,s9
800003ac:	00eb86b3          	add	a3,s7,a4
800003b0:	00e808b3          	add	a7,a6,a4
800003b4:	00078313          	mv	t1,a5
800003b8:	00088e13          	mv	t3,a7
800003bc:	00170713          	addi	a4,a4,1
800003c0:	03060613          	addi	a2,a2,48
800003c4:	00c68023          	sb	a2,0(a3)
800003c8:	0397c7b3          	div	a5,a5,s9
800003cc:	fc644ee3          	blt	s0,t1,800003a8 <sprintf+0x170>
800003d0:	00b4e463          	bltu	s1,a1,800003d8 <sprintf+0x1a0>
800003d4:	0ca74463          	blt	a4,a0,8000049c <sprintf+0x264>
800003d8:	060e9063          	bnez	t4,80000438 <sprintf+0x200>
800003dc:	fffe0313          	addi	t1,t3,-1
800003e0:	000e0e93          	mv	t4,t3
800003e4:	000b8693          	mv	a3,s7
800003e8:	006d0733          	add	a4,s10,t1
800003ec:	006c4663          	blt	s8,t1,800003f8 <sprintf+0x1c0>
800003f0:	02c0006f          	j	8000041c <sprintf+0x1e4>
800003f4:	00180813          	addi	a6,a6,1
800003f8:	00074883          	lbu	a7,0(a4)
800003fc:	0006c603          	lbu	a2,0(a3)
80000400:	410c07b3          	sub	a5,s8,a6
80000404:	01168023          	sb	a7,0(a3)
80000408:	00c70023          	sb	a2,0(a4)
8000040c:	006787b3          	add	a5,a5,t1
80000410:	00168693          	addi	a3,a3,1
80000414:	fff70713          	addi	a4,a4,-1
80000418:	fcf84ee3          	blt	a6,a5,800003f4 <sprintf+0x1bc>
8000041c:	07250863          	beq	a0,s2,8000048c <sprintf+0x254>
80000420:	000e8c13          	mv	s8,t4
80000424:	01dd0bb3          	add	s7,s10,t4
80000428:	ecb4eae3          	bltu	s1,a1,800002fc <sprintf+0xc4>
8000042c:	004d8d93          	addi	s11,s11,4
80000430:	01dd0bb3          	add	s7,s10,t4
80000434:	ec9ff06f          	j	800002fc <sprintf+0xc4>
80000438:	01cd07b3          	add	a5,s10,t3
8000043c:	02d00713          	li	a4,45
80000440:	001e0e93          	addi	t4,t3,1
80000444:	00e78023          	sb	a4,0(a5)
80000448:	000e0313          	mv	t1,t3
8000044c:	f99ff06f          	j	800003e4 <sprintf+0x1ac>
80000450:	00c12783          	lw	a5,12(sp)
80000454:	0007a603          	lw	a2,0(a5)
80000458:	00478793          	addi	a5,a5,4
8000045c:	00f12623          	sw	a5,12(sp)
80000460:	00064703          	lbu	a4,0(a2)
80000464:	02070063          	beqz	a4,80000484 <sprintf+0x24c>
80000468:	001c0c13          	addi	s8,s8,1
8000046c:	018d0bb3          	add	s7,s10,s8
80000470:	40dc07b3          	sub	a5,s8,a3
80000474:	feeb8fa3          	sb	a4,-1(s7)
80000478:	00f607b3          	add	a5,a2,a5
8000047c:	0007c703          	lbu	a4,0(a5)
80000480:	fe0714e3          	bnez	a4,80000468 <sprintf+0x230>
80000484:	002d8d93          	addi	s11,s11,2
80000488:	e75ff06f          	j	800002fc <sprintf+0xc4>
8000048c:	000e8c13          	mv	s8,t4
80000490:	002d8d93          	addi	s11,s11,2
80000494:	01dd0bb3          	add	s7,s10,t4
80000498:	e65ff06f          	j	800002fc <sprintf+0xc4>
8000049c:	00ad06b3          	add	a3,s10,a0
800004a0:	40e686b3          	sub	a3,a3,a4
800004a4:	011d07b3          	add	a5,s10,a7
800004a8:	011686b3          	add	a3,a3,a7
800004ac:	01478023          	sb	s4,0(a5)
800004b0:	00178793          	addi	a5,a5,1
800004b4:	fef69ce3          	bne	a3,a5,800004ac <sprintf+0x274>
800004b8:	40e50733          	sub	a4,a0,a4
800004bc:	01170e33          	add	t3,a4,a7
800004c0:	f19ff06f          	j	800003d8 <sprintf+0x1a0>
800004c4:	00000c13          	li	s8,0
800004c8:	e75ff06f          	j	8000033c <sprintf+0x104>
