
/home/cookiecoolkid/.ssh/ics2023/am-kernels/tests/cpu-tests/build/string-riscv32-nemu.elf:     file format elf32-littleriscv


Disassembly of section .text:

80000000 <_start>:
80000000:	00000413          	li	s0,0
80000004:	00009117          	auipc	sp,0x9
80000008:	ffc10113          	addi	sp,sp,-4 # 80009000 <_end>
8000000c:	128000ef          	jal	ra,80000134 <_trm_init>

80000010 <check>:
80000010:	00050463          	beqz	a0,80000018 <check+0x8>
80000014:	00008067          	ret
80000018:	ff010113          	addi	sp,sp,-16
8000001c:	00100513          	li	a0,1
80000020:	00112623          	sw	ra,12(sp)
80000024:	104000ef          	jal	ra,80000128 <halt>

80000028 <main>:
80000028:	ff010113          	addi	sp,sp,-16
8000002c:	00812423          	sw	s0,8(sp)
80000030:	00000417          	auipc	s0,0x0
80000034:	36840413          	addi	s0,s0,872 # 80000398 <s>
80000038:	00842583          	lw	a1,8(s0)
8000003c:	00042503          	lw	a0,0(s0)
80000040:	00112623          	sw	ra,12(sp)
80000044:	00912223          	sw	s1,4(sp)
80000048:	1d4000ef          	jal	ra,8000021c <strcmp>
8000004c:	00153513          	seqz	a0,a0
80000050:	fc1ff0ef          	jal	ra,80000010 <check>
80000054:	00442583          	lw	a1,4(s0)
80000058:	00042503          	lw	a0,0(s0)
8000005c:	00000497          	auipc	s1,0x0
80000060:	35c48493          	addi	s1,s1,860 # 800003b8 <str>
80000064:	1b8000ef          	jal	ra,8000021c <strcmp>
80000068:	01f55513          	srli	a0,a0,0x1f
8000006c:	fa5ff0ef          	jal	ra,80000010 <check>
80000070:	00442583          	lw	a1,4(s0)
80000074:	00042503          	lw	a0,0(s0)
80000078:	00158593          	addi	a1,a1,1
8000007c:	00150513          	addi	a0,a0,1
80000080:	19c000ef          	jal	ra,8000021c <strcmp>
80000084:	01f55513          	srli	a0,a0,0x1f
80000088:	f89ff0ef          	jal	ra,80000010 <check>
8000008c:	00442583          	lw	a1,4(s0)
80000090:	00042503          	lw	a0,0(s0)
80000094:	00258593          	addi	a1,a1,2
80000098:	00250513          	addi	a0,a0,2
8000009c:	180000ef          	jal	ra,8000021c <strcmp>
800000a0:	01f55513          	srli	a0,a0,0x1f
800000a4:	f6dff0ef          	jal	ra,80000010 <check>
800000a8:	00442583          	lw	a1,4(s0)
800000ac:	00042503          	lw	a0,0(s0)
800000b0:	00358593          	addi	a1,a1,3
800000b4:	00350513          	addi	a0,a0,3
800000b8:	164000ef          	jal	ra,8000021c <strcmp>
800000bc:	01f55513          	srli	a0,a0,0x1f
800000c0:	f51ff0ef          	jal	ra,80000010 <check>
800000c4:	00000597          	auipc	a1,0x0
800000c8:	2ec58593          	addi	a1,a1,748 # 800003b0 <str1>
800000cc:	00048513          	mv	a0,s1
800000d0:	084000ef          	jal	ra,80000154 <strcpy>
800000d4:	00c42583          	lw	a1,12(s0)
800000d8:	0c0000ef          	jal	ra,80000198 <strcat>
800000dc:	01042583          	lw	a1,16(s0)
800000e0:	13c000ef          	jal	ra,8000021c <strcmp>
800000e4:	00153513          	seqz	a0,a0
800000e8:	f29ff0ef          	jal	ra,80000010 <check>
800000ec:	00500613          	li	a2,5
800000f0:	02300593          	li	a1,35
800000f4:	00048513          	mv	a0,s1
800000f8:	1c8000ef          	jal	ra,800002c0 <memset>
800000fc:	01442583          	lw	a1,20(s0)
80000100:	00500613          	li	a2,5
80000104:	1dc000ef          	jal	ra,800002e0 <memcmp>
80000108:	00153513          	seqz	a0,a0
8000010c:	f05ff0ef          	jal	ra,80000010 <check>
80000110:	00c12083          	lw	ra,12(sp)
80000114:	00812403          	lw	s0,8(sp)
80000118:	00412483          	lw	s1,4(sp)
8000011c:	00000513          	li	a0,0
80000120:	01010113          	addi	sp,sp,16
80000124:	00008067          	ret

80000128 <halt>:
80000128:	00050513          	mv	a0,a0
8000012c:	00100073          	ebreak
80000130:	0000006f          	j	80000130 <halt+0x8>

80000134 <_trm_init>:
80000134:	ff010113          	addi	sp,sp,-16
80000138:	00000517          	auipc	a0,0x0
8000013c:	25c50513          	addi	a0,a0,604 # 80000394 <mainargs>
80000140:	00112623          	sw	ra,12(sp)
80000144:	ee5ff0ef          	jal	ra,80000028 <main>
80000148:	00050513          	mv	a0,a0
8000014c:	00100073          	ebreak
80000150:	0000006f          	j	80000150 <_trm_init+0x1c>

80000154 <strcpy>:
80000154:	0005c783          	lbu	a5,0(a1)
80000158:	00000693          	li	a3,0
8000015c:	02078c63          	beqz	a5,80000194 <strcpy+0x40>
80000160:	00000793          	li	a5,0
80000164:	00178793          	addi	a5,a5,1
80000168:	00f58733          	add	a4,a1,a5
8000016c:	00074703          	lbu	a4,0(a4)
80000170:	fe071ae3          	bnez	a4,80000164 <strcpy+0x10>
80000174:	02f6f063          	bgeu	a3,a5,80000194 <strcpy+0x40>
80000178:	00d587b3          	add	a5,a1,a3
8000017c:	0007c703          	lbu	a4,0(a5)
80000180:	00d507b3          	add	a5,a0,a3
80000184:	00168693          	addi	a3,a3,1
80000188:	00e78023          	sb	a4,0(a5)
8000018c:	0005c783          	lbu	a5,0(a1)
80000190:	fc0798e3          	bnez	a5,80000160 <strcpy+0xc>
80000194:	00008067          	ret

80000198 <strcat>:
80000198:	00054783          	lbu	a5,0(a0)
8000019c:	06078a63          	beqz	a5,80000210 <strcat+0x78>
800001a0:	00150713          	addi	a4,a0,1
800001a4:	00000693          	li	a3,0
800001a8:	00074603          	lbu	a2,0(a4)
800001ac:	00070793          	mv	a5,a4
800001b0:	00168693          	addi	a3,a3,1
800001b4:	00170713          	addi	a4,a4,1
800001b8:	fe0618e3          	bnez	a2,800001a8 <strcat+0x10>
800001bc:	0005c603          	lbu	a2,0(a1)
800001c0:	04060463          	beqz	a2,80000208 <strcat+0x70>
800001c4:	00000793          	li	a5,0
800001c8:	00178793          	addi	a5,a5,1
800001cc:	00f58733          	add	a4,a1,a5
800001d0:	00074703          	lbu	a4,0(a4)
800001d4:	fe071ae3          	bnez	a4,800001c8 <strcat+0x30>
800001d8:	00f50833          	add	a6,a0,a5
800001dc:	00d50733          	add	a4,a0,a3
800001e0:	00158593          	addi	a1,a1,1
800001e4:	00d80833          	add	a6,a6,a3
800001e8:	00c0006f          	j	800001f4 <strcat+0x5c>
800001ec:	0005c603          	lbu	a2,0(a1)
800001f0:	00158593          	addi	a1,a1,1
800001f4:	00c70023          	sb	a2,0(a4)
800001f8:	00170713          	addi	a4,a4,1
800001fc:	fee818e3          	bne	a6,a4,800001ec <strcat+0x54>
80000200:	00d787b3          	add	a5,a5,a3
80000204:	00f507b3          	add	a5,a0,a5
80000208:	00078023          	sb	zero,0(a5)
8000020c:	00008067          	ret
80000210:	00050793          	mv	a5,a0
80000214:	00000693          	li	a3,0
80000218:	fa5ff06f          	j	800001bc <strcat+0x24>

8000021c <strcmp>:
8000021c:	00054883          	lbu	a7,0(a0)
80000220:	0005c683          	lbu	a3,0(a1)
80000224:	00050813          	mv	a6,a0
80000228:	00000793          	li	a5,0
8000022c:	08088463          	beqz	a7,800002b4 <strcmp+0x98>
80000230:	00178793          	addi	a5,a5,1
80000234:	00f80733          	add	a4,a6,a5
80000238:	00074703          	lbu	a4,0(a4)
8000023c:	fe071ae3          	bnez	a4,80000230 <strcmp+0x14>
80000240:	06068663          	beqz	a3,800002ac <strcmp+0x90>
80000244:	00000713          	li	a4,0
80000248:	00070693          	mv	a3,a4
8000024c:	00170713          	addi	a4,a4,1
80000250:	00e58633          	add	a2,a1,a4
80000254:	00064603          	lbu	a2,0(a2)
80000258:	fe0618e3          	bnez	a2,80000248 <strcmp+0x2c>
8000025c:	fff00513          	li	a0,-1
80000260:	04078463          	beqz	a5,800002a8 <strcmp+0x8c>
80000264:	00000713          	li	a4,0
80000268:	0100006f          	j	80000278 <strcmp+0x5c>
8000026c:	04d70063          	beq	a4,a3,800002ac <strcmp+0x90>
80000270:	00034883          	lbu	a7,0(t1)
80000274:	00060713          	mv	a4,a2
80000278:	00e58633          	add	a2,a1,a4
8000027c:	00064503          	lbu	a0,0(a2)
80000280:	00170613          	addi	a2,a4,1
80000284:	00c80333          	add	t1,a6,a2
80000288:	03156263          	bltu	a0,a7,800002ac <strcmp+0x90>
8000028c:	00a8ec63          	bltu	a7,a0,800002a4 <strcmp+0x88>
80000290:	fcf61ee3          	bne	a2,a5,8000026c <strcmp+0x50>
80000294:	40d70533          	sub	a0,a4,a3
80000298:	00a03533          	snez	a0,a0
8000029c:	40a00533          	neg	a0,a0
800002a0:	00008067          	ret
800002a4:	fff00513          	li	a0,-1
800002a8:	00008067          	ret
800002ac:	00100513          	li	a0,1
800002b0:	00008067          	ret
800002b4:	f80698e3          	bnez	a3,80000244 <strcmp+0x28>
800002b8:	00000513          	li	a0,0
800002bc:	00008067          	ret

800002c0 <memset>:
800002c0:	0ff5f593          	zext.b	a1,a1
800002c4:	00c50733          	add	a4,a0,a2
800002c8:	00050793          	mv	a5,a0
800002cc:	00060863          	beqz	a2,800002dc <memset+0x1c>
800002d0:	00b78023          	sb	a1,0(a5)
800002d4:	00178793          	addi	a5,a5,1
800002d8:	fee79ce3          	bne	a5,a4,800002d0 <memset+0x10>
800002dc:	00008067          	ret

800002e0 <memcmp>:
800002e0:	02060863          	beqz	a2,80000310 <memcmp+0x30>
800002e4:	00c50633          	add	a2,a0,a2
800002e8:	00c0006f          	j	800002f4 <memcmp+0x14>
800002ec:	02e7e663          	bltu	a5,a4,80000318 <memcmp+0x38>
800002f0:	02c50063          	beq	a0,a2,80000310 <memcmp+0x30>
800002f4:	00054703          	lbu	a4,0(a0)
800002f8:	0005c783          	lbu	a5,0(a1)
800002fc:	00150513          	addi	a0,a0,1
80000300:	00158593          	addi	a1,a1,1
80000304:	fef774e3          	bgeu	a4,a5,800002ec <memcmp+0xc>
80000308:	fff00513          	li	a0,-1
8000030c:	00008067          	ret
80000310:	00000513          	li	a0,0
80000314:	00008067          	ret
80000318:	00100513          	li	a0,1
8000031c:	00008067          	ret
