
/home/cookiecoolkid/.ssh/ics2023/am-kernels/tests/klib-tests/build/klibtest-riscv32-nemu.elf:     file format elf32-littleriscv


Disassembly of section .text:

80000000 <_start>:
80000000:	00000413          	li	s0,0
80000004:	00009117          	auipc	sp,0x9
80000008:	ffc10113          	addi	sp,sp,-4 # 80009000 <_end>
8000000c:	09c000ef          	jal	ra,800000a8 <_trm_init>

80000010 <main>:
80000010:	0d2fe637          	lui	a2,0xd2fe
80000014:	fe010113          	addi	sp,sp,-32
80000018:	b1d60613          	addi	a2,a2,-1251 # d2fdb1d <_entry_offset+0xd2fdb1d>
8000001c:	00000597          	auipc	a1,0x0
80000020:	55458593          	addi	a1,a1,1364 # 80000570 <_etext>
80000024:	00000517          	auipc	a0,0x0
80000028:	55450513          	addi	a0,a0,1364 # 80000578 <_etext+0x8>
8000002c:	00812c23          	sw	s0,24(sp)
80000030:	00912a23          	sw	s1,20(sp)
80000034:	01212823          	sw	s2,16(sp)
80000038:	01312623          	sw	s3,12(sp)
8000003c:	00112e23          	sw	ra,28(sp)
80000040:	00000413          	li	s0,0
80000044:	34c000ef          	jal	ra,80000390 <printf>
80000048:	00000997          	auipc	s3,0x0
8000004c:	52898993          	addi	s3,s3,1320 # 80000570 <_etext>
80000050:	00000917          	auipc	s2,0x0
80000054:	53490913          	addi	s2,s2,1332 # 80000584 <_etext+0x14>
80000058:	01800493          	li	s1,24
8000005c:	00040613          	mv	a2,s0
80000060:	00140413          	addi	s0,s0,1
80000064:	00260713          	addi	a4,a2,2
80000068:	00040693          	mv	a3,s0
8000006c:	00098593          	mv	a1,s3
80000070:	00090513          	mv	a0,s2
80000074:	31c000ef          	jal	ra,80000390 <printf>
80000078:	fe9412e3          	bne	s0,s1,8000005c <main+0x4c>
8000007c:	01c12083          	lw	ra,28(sp)
80000080:	01812403          	lw	s0,24(sp)
80000084:	01412483          	lw	s1,20(sp)
80000088:	01012903          	lw	s2,16(sp)
8000008c:	00c12983          	lw	s3,12(sp)
80000090:	00000513          	li	a0,0
80000094:	02010113          	addi	sp,sp,32
80000098:	00008067          	ret

8000009c <putch>:
8000009c:	a00007b7          	lui	a5,0xa0000
800000a0:	3ea78c23          	sb	a0,1016(a5) # a00003f8 <_end+0x1fff73f8>
800000a4:	00008067          	ret

800000a8 <_trm_init>:
800000a8:	ff010113          	addi	sp,sp,-16
800000ac:	00000517          	auipc	a0,0x0
800000b0:	4f450513          	addi	a0,a0,1268 # 800005a0 <mainargs>
800000b4:	00112623          	sw	ra,12(sp)
800000b8:	f59ff0ef          	jal	ra,80000010 <main>
800000bc:	00050513          	mv	a0,a0
800000c0:	00100073          	ebreak
800000c4:	0000006f          	j	800000c4 <_trm_init+0x1c>

800000c8 <format_type>:
800000c8:	00b505b3          	add	a1,a0,a1
800000cc:	0005c703          	lbu	a4,0(a1)
800000d0:	02500793          	li	a5,37
800000d4:	04f71263          	bne	a4,a5,80000118 <format_type+0x50>
800000d8:	0015c783          	lbu	a5,1(a1)
800000dc:	07300713          	li	a4,115
800000e0:	04e78063          	beq	a5,a4,80000120 <format_type+0x58>
800000e4:	06400713          	li	a4,100
800000e8:	04e78063          	beq	a5,a4,80000128 <format_type+0x60>
800000ec:	03000693          	li	a3,48
800000f0:	00000513          	li	a0,0
800000f4:	02d79063          	bne	a5,a3,80000114 <format_type+0x4c>
800000f8:	0025c683          	lbu	a3,2(a1)
800000fc:	00800613          	li	a2,8
80000100:	fcf68793          	addi	a5,a3,-49
80000104:	0ff7f793          	zext.b	a5,a5
80000108:	00f66663          	bltu	a2,a5,80000114 <format_type+0x4c>
8000010c:	0035c783          	lbu	a5,3(a1)
80000110:	02e78063          	beq	a5,a4,80000130 <format_type+0x68>
80000114:	00008067          	ret
80000118:	00000513          	li	a0,0
8000011c:	00008067          	ret
80000120:	00a00513          	li	a0,10
80000124:	00008067          	ret
80000128:	00b00513          	li	a0,11
8000012c:	00008067          	ret
80000130:	fd068513          	addi	a0,a3,-48
80000134:	00008067          	ret

80000138 <sprintf>:
80000138:	fa010113          	addi	sp,sp,-96
8000013c:	01912a23          	sw	s9,20(sp)
80000140:	02112e23          	sw	ra,60(sp)
80000144:	02812c23          	sw	s0,56(sp)
80000148:	02912a23          	sw	s1,52(sp)
8000014c:	03212823          	sw	s2,48(sp)
80000150:	03312623          	sw	s3,44(sp)
80000154:	03412423          	sw	s4,40(sp)
80000158:	03512223          	sw	s5,36(sp)
8000015c:	03612023          	sw	s6,32(sp)
80000160:	01712e23          	sw	s7,28(sp)
80000164:	01812c23          	sw	s8,24(sp)
80000168:	01a12823          	sw	s10,16(sp)
8000016c:	0005cd03          	lbu	s10,0(a1)
80000170:	04f12a23          	sw	a5,84(sp)
80000174:	04810793          	addi	a5,sp,72
80000178:	04c12423          	sw	a2,72(sp)
8000017c:	04d12623          	sw	a3,76(sp)
80000180:	04e12823          	sw	a4,80(sp)
80000184:	05012c23          	sw	a6,88(sp)
80000188:	05112e23          	sw	a7,92(sp)
8000018c:	00f12623          	sw	a5,12(sp)
80000190:	00050c93          	mv	s9,a0
80000194:	1e0d0a63          	beqz	s10,80000388 <sprintf+0x250>
80000198:	00058a93          	mv	s5,a1
8000019c:	00000b13          	li	s6,0
800001a0:	00000c13          	li	s8,0
800001a4:	00a00b93          	li	s7,10
800001a8:	00b00913          	li	s2,11
800001ac:	00900413          	li	s0,9
800001b0:	00800493          	li	s1,8
800001b4:	02d00a13          	li	s4,45
800001b8:	03000993          	li	s3,48
800001bc:	0200006f          	j	800001dc <sprintf+0xa4>
800001c0:	15750863          	beq	a0,s7,80000310 <sprintf+0x1d8>
800001c4:	fff50313          	addi	t1,a0,-1
800001c8:	09250263          	beq	a0,s2,8000024c <sprintf+0x114>
800001cc:	0864f063          	bgeu	s1,t1,8000024c <sprintf+0x114>
800001d0:	018a87b3          	add	a5,s5,s8
800001d4:	0007cd03          	lbu	s10,0(a5)
800001d8:	020d0863          	beqz	s10,80000208 <sprintf+0xd0>
800001dc:	000c0593          	mv	a1,s8
800001e0:	000a8513          	mv	a0,s5
800001e4:	ee5ff0ef          	jal	ra,800000c8 <format_type>
800001e8:	fc051ce3          	bnez	a0,800001c0 <sprintf+0x88>
800001ec:	016c87b3          	add	a5,s9,s6
800001f0:	001c0c13          	addi	s8,s8,1
800001f4:	01a78023          	sb	s10,0(a5)
800001f8:	018a87b3          	add	a5,s5,s8
800001fc:	0007cd03          	lbu	s10,0(a5)
80000200:	001b0b13          	addi	s6,s6,1
80000204:	fc0d1ce3          	bnez	s10,800001dc <sprintf+0xa4>
80000208:	016c8cb3          	add	s9,s9,s6
8000020c:	000c8023          	sb	zero,0(s9)
80000210:	03c12083          	lw	ra,60(sp)
80000214:	03812403          	lw	s0,56(sp)
80000218:	03412483          	lw	s1,52(sp)
8000021c:	03012903          	lw	s2,48(sp)
80000220:	02c12983          	lw	s3,44(sp)
80000224:	02812a03          	lw	s4,40(sp)
80000228:	02412a83          	lw	s5,36(sp)
8000022c:	01c12b83          	lw	s7,28(sp)
80000230:	01812c03          	lw	s8,24(sp)
80000234:	01412c83          	lw	s9,20(sp)
80000238:	01012d03          	lw	s10,16(sp)
8000023c:	000b0513          	mv	a0,s6
80000240:	02012b03          	lw	s6,32(sp)
80000244:	06010113          	addi	sp,sp,96
80000248:	00008067          	ret
8000024c:	00c12703          	lw	a4,12(sp)
80000250:	00000f13          	li	t5,0
80000254:	00072783          	lw	a5,0(a4)
80000258:	00470713          	addi	a4,a4,4
8000025c:	00e12623          	sw	a4,12(sp)
80000260:	0007d663          	bgez	a5,8000026c <sprintf+0x134>
80000264:	40f007b3          	neg	a5,a5
80000268:	00100f13          	li	t5,1
8000026c:	00000613          	li	a2,0
80000270:	001b0693          	addi	a3,s6,1
80000274:	016c8733          	add	a4,s9,s6
80000278:	0377e8b3          	rem	a7,a5,s7
8000027c:	00c70833          	add	a6,a4,a2
80000280:	00c685b3          	add	a1,a3,a2
80000284:	00078e13          	mv	t3,a5
80000288:	00058e93          	mv	t4,a1
8000028c:	00160613          	addi	a2,a2,1
80000290:	03088893          	addi	a7,a7,48
80000294:	01180023          	sb	a7,0(a6)
80000298:	0377c7b3          	div	a5,a5,s7
8000029c:	fdc44ee3          	blt	s0,t3,80000278 <sprintf+0x140>
800002a0:	0064e463          	bltu	s1,t1,800002a8 <sprintf+0x170>
800002a4:	0aa64e63          	blt	a2,a0,80000360 <sprintf+0x228>
800002a8:	040f1a63          	bnez	t5,800002fc <sprintf+0x1c4>
800002ac:	fffe8893          	addi	a7,t4,-1
800002b0:	000e8e13          	mv	t3,t4
800002b4:	011c8633          	add	a2,s9,a7
800002b8:	011b4663          	blt	s6,a7,800002c4 <sprintf+0x18c>
800002bc:	02c0006f          	j	800002e8 <sprintf+0x1b0>
800002c0:	00168693          	addi	a3,a3,1
800002c4:	00064803          	lbu	a6,0(a2)
800002c8:	00074583          	lbu	a1,0(a4)
800002cc:	40db07b3          	sub	a5,s6,a3
800002d0:	01070023          	sb	a6,0(a4)
800002d4:	00b60023          	sb	a1,0(a2)
800002d8:	011787b3          	add	a5,a5,a7
800002dc:	00170713          	addi	a4,a4,1
800002e0:	fff60613          	addi	a2,a2,-1
800002e4:	fcf6cee3          	blt	a3,a5,800002c0 <sprintf+0x188>
800002e8:	07250663          	beq	a0,s2,80000354 <sprintf+0x21c>
800002ec:	000e0b13          	mv	s6,t3
800002f0:	ee64e0e3          	bltu	s1,t1,800001d0 <sprintf+0x98>
800002f4:	004c0c13          	addi	s8,s8,4
800002f8:	ed9ff06f          	j	800001d0 <sprintf+0x98>
800002fc:	01dc87b3          	add	a5,s9,t4
80000300:	001e8e13          	addi	t3,t4,1
80000304:	01478023          	sb	s4,0(a5)
80000308:	000e8893          	mv	a7,t4
8000030c:	fa9ff06f          	j	800002b4 <sprintf+0x17c>
80000310:	00c12783          	lw	a5,12(sp)
80000314:	0007a583          	lw	a1,0(a5)
80000318:	00478793          	addi	a5,a5,4
8000031c:	00f12623          	sw	a5,12(sp)
80000320:	0005c683          	lbu	a3,0(a1)
80000324:	000b0793          	mv	a5,s6
80000328:	02068063          	beqz	a3,80000348 <sprintf+0x210>
8000032c:	00178793          	addi	a5,a5,1
80000330:	00fc8633          	add	a2,s9,a5
80000334:	41678733          	sub	a4,a5,s6
80000338:	fed60fa3          	sb	a3,-1(a2)
8000033c:	00e58733          	add	a4,a1,a4
80000340:	00074683          	lbu	a3,0(a4)
80000344:	fe0694e3          	bnez	a3,8000032c <sprintf+0x1f4>
80000348:	002c0c13          	addi	s8,s8,2
8000034c:	00078b13          	mv	s6,a5
80000350:	e81ff06f          	j	800001d0 <sprintf+0x98>
80000354:	002c0c13          	addi	s8,s8,2
80000358:	000e0b13          	mv	s6,t3
8000035c:	e75ff06f          	j	800001d0 <sprintf+0x98>
80000360:	00ac8833          	add	a6,s9,a0
80000364:	40c80833          	sub	a6,a6,a2
80000368:	00bc87b3          	add	a5,s9,a1
8000036c:	00b80833          	add	a6,a6,a1
80000370:	01378023          	sb	s3,0(a5)
80000374:	00178793          	addi	a5,a5,1
80000378:	ff079ce3          	bne	a5,a6,80000370 <sprintf+0x238>
8000037c:	40c50633          	sub	a2,a0,a2
80000380:	00b60eb3          	add	t4,a2,a1
80000384:	f25ff06f          	j	800002a8 <sprintf+0x170>
80000388:	00000b13          	li	s6,0
8000038c:	e81ff06f          	j	8000020c <sprintf+0xd4>

80000390 <printf>:
80000390:	d9010113          	addi	sp,sp,-624
80000394:	24112623          	sw	ra,588(sp)
80000398:	24812423          	sw	s0,584(sp)
8000039c:	24912223          	sw	s1,580(sp)
800003a0:	25212023          	sw	s2,576(sp)
800003a4:	23312e23          	sw	s3,572(sp)
800003a8:	23412c23          	sw	s4,568(sp)
800003ac:	23512a23          	sw	s5,564(sp)
800003b0:	23612823          	sw	s6,560(sp)
800003b4:	23712623          	sw	s7,556(sp)
800003b8:	00054903          	lbu	s2,0(a0)
800003bc:	26f12223          	sw	a5,612(sp)
800003c0:	25410793          	addi	a5,sp,596
800003c4:	24b12a23          	sw	a1,596(sp)
800003c8:	24c12c23          	sw	a2,600(sp)
800003cc:	24d12e23          	sw	a3,604(sp)
800003d0:	26e12023          	sw	a4,608(sp)
800003d4:	27012423          	sw	a6,616(sp)
800003d8:	27112623          	sw	a7,620(sp)
800003dc:	00f12623          	sw	a5,12(sp)
800003e0:	16090863          	beqz	s2,80000550 <printf+0x1c0>
800003e4:	00006bb7          	lui	s7,0x6
800003e8:	00003b37          	lui	s6,0x3
800003ec:	00050993          	mv	s3,a0
800003f0:	00000493          	li	s1,0
800003f4:	00000413          	li	s0,0
800003f8:	00a00a13          	li	s4,10
800003fc:	00b00a93          	li	s5,11
80000400:	425b8b93          	addi	s7,s7,1061 # 6425 <_entry_offset+0x6425>
80000404:	025b0b13          	addi	s6,s6,37 # 3025 <_entry_offset+0x3025>
80000408:	0640006f          	j	8000046c <printf+0xdc>
8000040c:	11450a63          	beq	a0,s4,80000520 <printf+0x190>
80000410:	0f550863          	beq	a0,s5,80000500 <printf+0x170>
80000414:	fff50793          	addi	a5,a0,-1
80000418:	00800713          	li	a4,8
8000041c:	04f76263          	bltu	a4,a5,80000460 <printf+0xd0>
80000420:	00c12703          	lw	a4,12(sp)
80000424:	03050793          	addi	a5,a0,48
80000428:	00f10923          	sb	a5,18(sp)
8000042c:	00072603          	lw	a2,0(a4)
80000430:	00470693          	addi	a3,a4,4
80000434:	06400793          	li	a5,100
80000438:	00d12623          	sw	a3,12(sp)
8000043c:	01611823          	sh	s6,16(sp)
80000440:	00f109a3          	sb	a5,19(sp)
80000444:	00010a23          	sb	zero,20(sp)
80000448:	00440413          	addi	s0,s0,4
8000044c:	02010793          	addi	a5,sp,32
80000450:	00978533          	add	a0,a5,s1
80000454:	01010593          	addi	a1,sp,16
80000458:	ce1ff0ef          	jal	ra,80000138 <sprintf>
8000045c:	00a484b3          	add	s1,s1,a0
80000460:	008987b3          	add	a5,s3,s0
80000464:	0007c903          	lbu	s2,0(a5)
80000468:	02090a63          	beqz	s2,8000049c <printf+0x10c>
8000046c:	00040593          	mv	a1,s0
80000470:	00098513          	mv	a0,s3
80000474:	c55ff0ef          	jal	ra,800000c8 <format_type>
80000478:	f8051ae3          	bnez	a0,8000040c <printf+0x7c>
8000047c:	22048793          	addi	a5,s1,544
80000480:	002787b3          	add	a5,a5,sp
80000484:	00140413          	addi	s0,s0,1
80000488:	e1278023          	sb	s2,-512(a5)
8000048c:	008987b3          	add	a5,s3,s0
80000490:	0007c903          	lbu	s2,0(a5)
80000494:	00148493          	addi	s1,s1,1
80000498:	fc091ae3          	bnez	s2,8000046c <printf+0xdc>
8000049c:	22048793          	addi	a5,s1,544
800004a0:	002784b3          	add	s1,a5,sp
800004a4:	e0048023          	sb	zero,-512(s1)
800004a8:	02014503          	lbu	a0,32(sp)
800004ac:	0a050e63          	beqz	a0,80000568 <printf+0x1d8>
800004b0:	02010413          	addi	s0,sp,32
800004b4:	00100493          	li	s1,1
800004b8:	408484b3          	sub	s1,s1,s0
800004bc:	be1ff0ef          	jal	ra,8000009c <putch>
800004c0:	00144503          	lbu	a0,1(s0)
800004c4:	008487b3          	add	a5,s1,s0
800004c8:	00140413          	addi	s0,s0,1
800004cc:	fe0518e3          	bnez	a0,800004bc <printf+0x12c>
800004d0:	24c12083          	lw	ra,588(sp)
800004d4:	24812403          	lw	s0,584(sp)
800004d8:	24412483          	lw	s1,580(sp)
800004dc:	24012903          	lw	s2,576(sp)
800004e0:	23c12983          	lw	s3,572(sp)
800004e4:	23812a03          	lw	s4,568(sp)
800004e8:	23412a83          	lw	s5,564(sp)
800004ec:	23012b03          	lw	s6,560(sp)
800004f0:	22c12b83          	lw	s7,556(sp)
800004f4:	00078513          	mv	a0,a5
800004f8:	27010113          	addi	sp,sp,624
800004fc:	00008067          	ret
80000500:	00c12783          	lw	a5,12(sp)
80000504:	01711823          	sh	s7,16(sp)
80000508:	00010923          	sb	zero,18(sp)
8000050c:	00478713          	addi	a4,a5,4
80000510:	0007a603          	lw	a2,0(a5)
80000514:	00e12623          	sw	a4,12(sp)
80000518:	00240413          	addi	s0,s0,2
8000051c:	f31ff06f          	j	8000044c <printf+0xbc>
80000520:	00c12783          	lw	a5,12(sp)
80000524:	02010713          	addi	a4,sp,32
80000528:	00970533          	add	a0,a4,s1
8000052c:	0007a603          	lw	a2,0(a5)
80000530:	00000597          	auipc	a1,0x0
80000534:	06c58593          	addi	a1,a1,108 # 8000059c <_etext+0x2c>
80000538:	00478793          	addi	a5,a5,4
8000053c:	00f12623          	sw	a5,12(sp)
80000540:	bf9ff0ef          	jal	ra,80000138 <sprintf>
80000544:	00a484b3          	add	s1,s1,a0
80000548:	00240413          	addi	s0,s0,2
8000054c:	f15ff06f          	j	80000460 <printf+0xd0>
80000550:	00000493          	li	s1,0
80000554:	22048793          	addi	a5,s1,544
80000558:	002784b3          	add	s1,a5,sp
8000055c:	e0048023          	sb	zero,-512(s1)
80000560:	02014503          	lbu	a0,32(sp)
80000564:	f40516e3          	bnez	a0,800004b0 <printf+0x120>
80000568:	00000793          	li	a5,0
8000056c:	f65ff06f          	j	800004d0 <printf+0x140>
